; Function Attrs: mustprogress uwtable
define internal void @_ZN7testing8internal26CartesianProductGenerator2IN2cv5Size_IiEEN11opencv_test12_GLOBAL__N_18CvtMode3EE8Iterator7AdvanceEv(ptr noundef nonnull align 8 dereferenceable(80) %0) unnamed_addr #4 align 2 {
  %2 = getelementptr inbounds nuw i8, ptr %0, i64 56
  %.val.i = load ptr, ptr %2, align 8, !tbaa !802
  %3 = load ptr, ptr %.val.i, align 8, !tbaa !19
  %4 = getelementptr inbounds nuw i8, ptr %3, i64 24
  %5 = load ptr, ptr %4, align 8
  tail call void %5(ptr noundef nonnull align 8 dereferenceable(8) %.val.i)
  %6 = getelementptr inbounds nuw i8, ptr %0, i64 48
  %.val = load ptr, ptr %2, align 8, !tbaa !802
  %.val1 = load ptr, ptr %6, align 8, !tbaa !802
  %7 = icmp eq ptr %.val, %.val1
  br i1 %7, label %_ZNK7testing8internal13ParamIteratorIN11opencv_test12_GLOBAL__N_18CvtMode3EEeqERKS5_.exit.thread, label %_ZNK7testing8internal13ParamIteratorIN11opencv_test12_GLOBAL__N_18CvtMode3EEeqERKS5_.exit

_ZNK7testing8internal13ParamIteratorIN11opencv_test12_GLOBAL__N_18CvtMode3EEeqERKS5_.exit: ; preds = %1
  %8 = load ptr, ptr %.val, align 8, !tbaa !19
  %9 = getelementptr inbounds nuw i8, ptr %8, i64 48
  %10 = load ptr, ptr %9, align 8
  %11 = tail call noundef zeroext i1 %10(ptr noundef nonnull align 8 dereferenceable(8) %.val, ptr noundef nonnull align 8 dereferenceable(8) %.val1)
  br i1 %11, label %_ZNK7testing8internal13ParamIteratorIN11opencv_test12_GLOBAL__N_18CvtMode3EEeqERKS5_.exit.thread, label %33

_ZNK7testing8internal13ParamIteratorIN11opencv_test12_GLOBAL__N_18CvtMode3EEeqERKS5_.exit.thread: ; preds = %1, %_ZNK7testing8internal13ParamIteratorIN11opencv_test12_GLOBAL__N_18CvtMode3EEeqERKS5_.exit
  %12 = getelementptr inbounds nuw i8, ptr %0, i64 40
  %.val.i2 = load ptr, ptr %12, align 8, !tbaa !802
  %13 = load ptr, ptr %.val.i2, align 8, !tbaa !19
  %14 = getelementptr inbounds nuw i8, ptr %13, i64 32
  %15 = load ptr, ptr %14, align 8
  %16 = tail call noundef ptr %15(ptr noundef nonnull align 8 dereferenceable(8) %.val.i2)
  %17 = load ptr, ptr %2, align 8, !tbaa !802
  %.not.i.i = icmp eq ptr %16, %17
  br i1 %.not.i.i, label %_ZN7testing8internal13ParamIteratorIN11opencv_test12_GLOBAL__N_18CvtMode3EEaSERKS5_.exit, label %18

18:                                               ; preds = %_ZNK7testing8internal13ParamIteratorIN11opencv_test12_GLOBAL__N_18CvtMode3EEeqERKS5_.exit.thread
  %19 = tail call noundef zeroext i1 @_ZN7testing8internal6IsTrueEb(i1 noundef zeroext true)
  br i1 %19, label %20, label %27

20:                                               ; preds = %18
  %21 = load ptr, ptr %2, align 8, !tbaa !802
  %22 = icmp eq ptr %21, null
  br i1 %22, label %27, label %23

23:                                               ; preds = %20
  %24 = load ptr, ptr %21, align 8, !tbaa !19
  %25 = getelementptr inbounds nuw i8, ptr %24, i64 8
  %26 = load ptr, ptr %25, align 8
  tail call void %26(ptr noundef nonnull align 8 dereferenceable(8) %21) #30
  br label %27

27:                                               ; preds = %23, %20, %18
  store ptr %16, ptr %2, align 8, !tbaa !802
  br label %_ZN7testing8internal13ParamIteratorIN11opencv_test12_GLOBAL__N_18CvtMode3EEaSERKS5_.exit

_ZN7testing8internal13ParamIteratorIN11opencv_test12_GLOBAL__N_18CvtMode3EEaSERKS5_.exit: ; preds = %_ZNK7testing8internal13ParamIteratorIN11opencv_test12_GLOBAL__N_18CvtMode3EEeqERKS5_.exit.thread, %27
  %28 = getelementptr inbounds nuw i8, ptr %0, i64 32
  %29 = load ptr, ptr %28, align 8, !tbaa !575
  %30 = load ptr, ptr %29, align 8, !tbaa !19
  %31 = getelementptr inbounds nuw i8, ptr %30, i64 24
  %32 = load ptr, ptr %31, align 8
  tail call void %32(ptr noundef nonnull align 8 dereferenceable(8) %29)
  br label %33

33:                                               ; preds = %_ZN7testing8internal13ParamIteratorIN11opencv_test12_GLOBAL__N_18CvtMode3EEaSERKS5_.exit, %_ZNK7testing8internal13ParamIteratorIN11opencv_test12_GLOBAL__N_18CvtMode3EEeqERKS5_.exit
  tail call fastcc void @_ZN7testing8internal26CartesianProductGenerator2IN2cv5Size_IiEEN11opencv_test12_GLOBAL__N_18CvtMode3EE8Iterator19ComputeCurrentValueEv(ptr noundef nonnull align 8 dereferenceable(80) %0)
  ret void
}